target datalayout = "e-m:e-p270:32:32-p271:32:32-p272:64:64-i64:64-i128:128-f80:128-n8:16:32:64-S128"
target triple = "x86_64-pc-linux-gnu"

%"class.std::_Function_base" = type { %"union.std::_Any_data", ptr }
%"union.std::_Any_data" = type { %"union.std::_Nocopy_types" }
%"union.std::_Nocopy_types" = type { { i64, i64 } }
%"class.sat::lut_finder" = type { ptr, i32, %class.vector, i64, i32, %class.ptr_vector, %class.svector, %class.svector, %class.svector.2, %class.svector, [7 x i64], %class.ptr_vector, %"class.std::function" }
%class.vector = type { ptr }
%class.svector.2 = type { %class.vector.3 }
%class.vector.3 = type { ptr }
%class.svector = type { %class.vector.1 }
%class.vector.1 = type { ptr }
%class.ptr_vector = type { %class.vector.0 }
%class.vector.0 = type { ptr }
%"class.std::function" = type { %"class.std::_Function_base", ptr }

; Function Attrs: inlinehint mustprogress nounwind uwtable
define linkonce_odr hidden noundef zeroext i1 @_ZNK3sat10lut_finder15get_combinationEj(ptr noundef nonnull align 8 dereferenceable(176) %0, i32 noundef %1) #9 comdat align 2 {
  %3 = alloca ptr, align 8
  %4 = alloca i32, align 4
  store ptr %0, ptr %3, align 8, !tbaa !3
  store i32 %1, ptr %4, align 4, !tbaa !29
  %5 = load ptr, ptr %3, align 8
  %6 = getelementptr inbounds nuw %"class.sat::lut_finder", ptr %5, i32 0, i32 3
  %7 = load i64, ptr %6, align 8, !tbaa !55
  %8 = load i32, ptr %4, align 4, !tbaa !29
  %9 = zext i32 %8 to i64
  %10 = shl i64 1, %9
  %11 = and i64 %7, %10
  %12 = icmp ne i64 %11, 0
  ret i1 %12
}

; Function Attrs: mustprogress uwtable
define hidden void @_ZN3sat10lut_finder15set_combinationEj(ptr noundef nonnull align 8 dereferenceable(176) %0, i32 noundef %1) #4 align 2 {
  %3 = alloca ptr, align 8
  %4 = alloca i32, align 4
  store ptr %0, ptr %3, align 8, !tbaa !3
  store i32 %1, ptr %4, align 4, !tbaa !29
  %5 = load ptr, ptr %3, align 8
  %6 = load i32, ptr %4, align 4, !tbaa !29
  %7 = call noundef zeroext i1 @_ZNK3sat10lut_finder15get_combinationEj(ptr noundef nonnull align 8 dereferenceable(176) %5, i32 noundef %6)
  br i1 %7, label %18, label %8

8:                                                ; preds = %2
  %9 = load i32, ptr %4, align 4, !tbaa !29
  %10 = zext i32 %9 to i64
  %11 = shl i64 1, %10
  %12 = getelementptr inbounds nuw %"class.sat::lut_finder", ptr %5, i32 0, i32 3
  %13 = load i64, ptr %12, align 8, !tbaa !55
  %14 = or i64 %13, %11
  store i64 %14, ptr %12, align 8, !tbaa !55
  %15 = getelementptr inbounds nuw %"class.sat::lut_finder", ptr %5, i32 0, i32 4
  %16 = load i32, ptr %15, align 8, !tbaa !56
  %17 = add i32 %16, 1
  store i32 %17, ptr %15, align 8, !tbaa !56
  br label %18

18:                                               ; preds = %8, %2
  ret void
}