; Function Attrs: mustprogress nofree norecurse nosync nounwind willreturn memory(argmem: readwrite) uwtable
define hidden void @_ZN3sat10lut_finder15set_combinationEj(ptr noundef nonnull align 8 captures(none) dereferenceable(176) %0, i32 noundef %1) local_unnamed_addr #7 align 2 {
  %3 = getelementptr inbounds nuw i8, ptr %0, i64 24
  %4 = load i64, ptr %3, align 8, !tbaa !62
  %5 = zext nneg i32 %1 to i64
  %6 = shl nuw i64 1, %5
  %7 = and i64 %4, %6
  %.not = icmp eq i64 %7, 0
  br i1 %.not, label %8, label %13

8:                                                ; preds = %2
  %9 = or i64 %4, %6
  store i64 %9, ptr %3, align 8, !tbaa !62
  %10 = getelementptr inbounds nuw i8, ptr %0, i64 32
  %11 = load i32, ptr %10, align 8, !tbaa !63
  %12 = add i32 %11, 1
  store i32 %12, ptr %10, align 8, !tbaa !63
  br label %13

13:                                               ; preds = %8, %2
  ret void
}